; ModuleID = '14/986.c'
source_filename = "14/986.c"
target datalayout = "e-m:e-p270:32:32-p271:32:32-p272:64:64-i64:64-f80:128-n8:16:32:64-S128"
target triple = "x86_64-pc-linux-gnu"

%struct.stu = type { i32, i32, i32, i32 }

@.str = private unnamed_addr constant [3 x i8] c"%d\00", align 1
@.str.1 = private unnamed_addr constant [7 x i8] c"%d%d%d\00", align 1
@.str.2 = private unnamed_addr constant [7 x i8] c"%d %d\0A\00", align 1

; Function Attrs: noinline nounwind uwtable
define dso_local i32 @main(i32 %0, i8** %1) #0 {
  %3 = alloca i32, align 4
  %4 = alloca i32, align 4
  %5 = alloca i8**, align 8
  %6 = alloca i32, align 4
  %7 = alloca i32, align 4
  %8 = alloca i32, align 4
  %9 = alloca [100000 x %struct.stu], align 16
  %10 = alloca i32, align 4
  %11 = alloca i32, align 4
  store i32 0, i32* %3, align 4
  store i32 %0, i32* %4, align 4
  store i8** %1, i8*** %5, align 8
  %12 = call i32 (i8*, ...) @__isoc99_scanf(i8* getelementptr inbounds ([3 x i8], [3 x i8]* @.str, i64 0, i64 0), i32* %6)
  store i32 0, i32* %10, align 4
  br label %13

13:                                               ; preds = %46, %2
  %14 = load i32, i32* %10, align 4
  %15 = load i32, i32* %6, align 4
  %16 = icmp slt i32 %14, %15
  br i1 %16, label %17, label %49

17:                                               ; preds = %13
  %18 = load i32, i32* %10, align 4
  %19 = sext i32 %18 to i64
  %20 = getelementptr inbounds [100000 x %struct.stu], [100000 x %struct.stu]* %9, i64 0, i64 %19
  %21 = getelementptr inbounds %struct.stu, %struct.stu* %20, i32 0, i32 0
  %22 = load i32, i32* %10, align 4
  %23 = sext i32 %22 to i64
  %24 = getelementptr inbounds [100000 x %struct.stu], [100000 x %struct.stu]* %9, i64 0, i64 %23
  %25 = getelementptr inbounds %struct.stu, %struct.stu* %24, i32 0, i32 1
  %26 = load i32, i32* %10, align 4
  %27 = sext i32 %26 to i64
  %28 = getelementptr inbounds [100000 x %struct.stu], [100000 x %struct.stu]* %9, i64 0, i64 %27
  %29 = getelementptr inbounds %struct.stu, %struct.stu* %28, i32 0, i32 2
  %30 = call i32 (i8*, ...) @__isoc99_scanf(i8* getelementptr inbounds ([7 x i8], [7 x i8]* @.str.1, i64 0, i64 0), i32* %21, i32* %25, i32* %29)
  %31 = load i32, i32* %10, align 4
  %32 = sext i32 %31 to i64
  %33 = getelementptr inbounds [100000 x %struct.stu], [100000 x %struct.stu]* %9, i64 0, i64 %32
  %34 = getelementptr inbounds %struct.stu, %struct.stu* %33, i32 0, i32 1
  %35 = load i32, i32* %34, align 4
  %36 = load i32, i32* %10, align 4
  %37 = sext i32 %36 to i64
  %38 = getelementptr inbounds [100000 x %struct.stu], [100000 x %struct.stu]* %9, i64 0, i64 %37
  %39 = getelementptr inbounds %struct.stu, %struct.stu* %38, i32 0, i32 2
  %40 = load i32, i32* %39, align 8
  %41 = add nsw i32 %35, %40
  %42 = load i32, i32* %10, align 4
  %43 = sext i32 %42 to i64
  %44 = getelementptr inbounds [100000 x %struct.stu], [100000 x %struct.stu]* %9, i64 0, i64 %43
  %45 = getelementptr inbounds %struct.stu, %struct.stu* %44, i32 0, i32 3
  store i32 %41, i32* %45, align 4
  br label %46

46:                                               ; preds = %17
  %47 = load i32, i32* %10, align 4
  %48 = add nsw i32 %47, 1
  store i32 %48, i32* %10, align 4
  br label %13

49:                                               ; preds = %13
  store i32 0, i32* %10, align 4
  br label %50

50:                                               ; preds = %92, %49
  %51 = load i32, i32* %10, align 4
  %52 = icmp slt i32 %51, 3
  br i1 %52, label %53, label %95

53:                                               ; preds = %50
  %54 = getelementptr inbounds [100000 x %struct.stu], [100000 x %struct.stu]* %9, i64 0, i64 0
  %55 = getelementptr inbounds %struct.stu, %struct.stu* %54, i32 0, i32 3
  %56 = load i32, i32* %55, align 4
  store i32 %56, i32* %7, align 4
  store i32 1, i32* %11, align 4
  br label %57

57:                                               ; preds = %77, %53
  %58 = load i32, i32* %11, align 4
  %59 = load i32, i32* %6, align 4
  %60 = icmp slt i32 %58, %59
  br i1 %60, label %61, label %80

61:                                               ; preds = %57
  %62 = load i32, i32* %11, align 4
  %63 = sext i32 %62 to i64
  %64 = getelementptr inbounds [100000 x %struct.stu], [100000 x %struct.stu]* %9, i64 0, i64 %63
  %65 = getelementptr inbounds %struct.stu, %struct.stu* %64, i32 0, i32 3
  %66 = load i32, i32* %65, align 4
  %67 = load i32, i32* %7, align 4
  %68 = icmp sgt i32 %66, %67
  br i1 %68, label %69, label %76

69:                                               ; preds = %61
  %70 = load i32, i32* %11, align 4
  %71 = sext i32 %70 to i64
  %72 = getelementptr inbounds [100000 x %struct.stu], [100000 x %struct.stu]* %9, i64 0, i64 %71
  %73 = getelementptr inbounds %struct.stu, %struct.stu* %72, i32 0, i32 3
  %74 = load i32, i32* %73, align 4
  store i32 %74, i32* %7, align 4
  %75 = load i32, i32* %11, align 4
  store i32 %75, i32* %8, align 4
  br label %76

76:                                               ; preds = %69, %61
  br label %77

77:                                               ; preds = %76
  %78 = load i32, i32* %11, align 4
  %79 = add nsw i32 %78, 1
  store i32 %79, i32* %11, align 4
  br label %57

80:                                               ; preds = %57
  %81 = load i32, i32* %8, align 4
  %82 = sext i32 %81 to i64
  %83 = getelementptr inbounds [100000 x %struct.stu], [100000 x %struct.stu]* %9, i64 0, i64 %82
  %84 = getelementptr inbounds %struct.stu, %struct.stu* %83, i32 0, i32 0
  %85 = load i32, i32* %84, align 16
  %86 = load i32, i32* %7, align 4
  %87 = call i32 (i8*, ...) @printf(i8* getelementptr inbounds ([7 x i8], [7 x i8]* @.str.2, i64 0, i64 0), i32 %85, i32 %86)
  %88 = load i32, i32* %8, align 4
  %89 = sext i32 %88 to i64
  %90 = getelementptr inbounds [100000 x %struct.stu], [100000 x %struct.stu]* %9, i64 0, i64 %89
  %91 = getelementptr inbounds %struct.stu, %struct.stu* %90, i32 0, i32 3
  store i32 0, i32* %91, align 4
  br label %92

92:                                               ; preds = %80
  %93 = load i32, i32* %10, align 4
  %94 = add nsw i32 %93, 1
  store i32 %94, i32* %10, align 4
  br label %50

95:                                               ; preds = %50
  ret i32 0
}

declare dso_local i32 @__isoc99_scanf(i8*, ...) #1

declare dso_local i32 @printf(i8*, ...) #1


!llvm.module.flags = !{!0}
!llvm.ident = !{!1}

!0 = !{i32 1, !"wchar_size", i32 4}
!1 = !{!"clang version 10.0.0-4ubuntu1 "}
